target datalayout = "e-m:e-p270:32:32-p271:32:32-p272:64:64-i64:64-i128:128-f80:128-n8:16:32:64-S128"
target triple = "x86_64-pc-linux-gnu"

%"class.std::__cxx11::basic_string" = type { %"struct.std::__cxx11::basic_string<char>::_Alloc_hider", i64, %union.anon }
%"struct.std::__cxx11::basic_string<char>::_Alloc_hider" = type { ptr }
%union.anon = type { i64, [8 x i8] }
%"class.llvm::SmallVectorBase" = type { ptr, i32, i32 }
%"struct.clang::TargetInfo::ConstraintInfo" = type { i32, i32, %struct.anon, %"class.llvm::SmallSet", %"class.std::__cxx11::basic_string", %"class.std::__cxx11::basic_string" }
%struct.anon = type { i32, i32, i8 }
%"class.llvm::SmallSet" = type { %"class.llvm::SmallVector.60", %"class.std::set" }
%"class.llvm::SmallVector.60" = type { %"class.llvm::SmallVectorImpl.61", %"struct.llvm::SmallVectorStorage.64" }
%"class.llvm::SmallVectorImpl.61" = type { %"class.llvm::SmallVectorTemplateBase.62" }
%"class.llvm::SmallVectorTemplateBase.62" = type { %"class.llvm::SmallVectorTemplateCommon.63" }
%"class.llvm::SmallVectorTemplateCommon.63" = type { %"class.llvm::SmallVectorBase" }
%"struct.llvm::SmallVectorStorage.64" = type { [16 x i8] }
%"class.std::set" = type { %"class.std::_Rb_tree.65" }
%"class.std::_Rb_tree.65" = type { %"struct.std::_Rb_tree<int, int, std::_Identity<int>, std::less<int>>::_Rb_tree_impl" }
%"struct.std::_Rb_tree<int, int, std::_Identity<int>, std::less<int>>::_Rb_tree_impl" = type { [8 x i8], %"struct.std::_Rb_tree_header" }
%"struct.std::_Rb_tree_header" = type { %"struct.std::_Rb_tree_node_base", i64 }
%"struct.std::_Rb_tree_node_base" = type { i32, ptr, ptr, ptr }

; Function Attrs: mustprogress nounwind uwtable
define linkonce_odr hidden noundef zeroext i1 @_ZNK5clang10TargetInfo14ConstraintInfo12allowsMemoryEv(ptr noundef nonnull align 8 dereferenceable(168) %0) #0 comdat align 2 {
  %2 = alloca ptr, align 8
  store ptr %0, ptr %2, align 8
  %3 = load ptr, ptr %2, align 8
  %4 = getelementptr inbounds nuw %"struct.clang::TargetInfo::ConstraintInfo", ptr %3, i32 0, i32 0
  %5 = load i32, ptr %4, align 8
  %6 = and i32 %5, 1
  %7 = icmp ne i32 %6, 0
  ret i1 %7
}

; Function Attrs: mustprogress nounwind uwtable
define linkonce_odr hidden noundef zeroext i1 @_ZNK5clang10TargetInfo14ConstraintInfo14allowsRegisterEv(ptr noundef nonnull align 8 dereferenceable(168) %0) #0 comdat align 2 {
  %2 = alloca ptr, align 8
  store ptr %0, ptr %2, align 8
  %3 = load ptr, ptr %2, align 8
  %4 = getelementptr inbounds nuw %"struct.clang::TargetInfo::ConstraintInfo", ptr %3, i32 0, i32 0
  %5 = load i32, ptr %4, align 8
  %6 = and i32 %5, 2
  %7 = icmp ne i32 %6, 0
  ret i1 %7
}

; Function Attrs: mustprogress nounwind uwtable
define linkonce_odr hidden noundef zeroext i1 @_ZNK5clang10TargetInfo14ConstraintInfo11isReadWriteEv(ptr noundef nonnull align 8 dereferenceable(168) %0) #0 comdat align 2 {
  %2 = alloca ptr, align 8
  store ptr %0, ptr %2, align 8
  %3 = load ptr, ptr %2, align 8
  %4 = getelementptr inbounds nuw %"struct.clang::TargetInfo::ConstraintInfo", ptr %3, i32 0, i32 0
  %5 = load i32, ptr %4, align 8
  %6 = and i32 %5, 4
  %7 = icmp ne i32 %6, 0
  ret i1 %7
}

; Function Attrs: mustprogress nounwind uwtable
define linkonce_odr hidden noundef zeroext i1 @_ZN5clang10TargetInfo14ConstraintInfo12earlyClobberEv(ptr noundef nonnull align 8 dereferenceable(168) %0) #0 comdat align 2 {
  %2 = alloca ptr, align 8
  store ptr %0, ptr %2, align 8
  %3 = load ptr, ptr %2, align 8
  %4 = getelementptr inbounds nuw %"struct.clang::TargetInfo::ConstraintInfo", ptr %3, i32 0, i32 0
  %5 = load i32, ptr %4, align 8
  %6 = and i32 %5, 32
  %7 = icmp ne i32 %6, 0
  ret i1 %7
}

; Function Attrs: mustprogress nounwind uwtable
define linkonce_odr hidden void @_ZN5clang10TargetInfo14ConstraintInfo15setAllowsMemoryEv(ptr noundef nonnull align 8 dereferenceable(168) %0) #0 comdat align 2 {
  %2 = alloca ptr, align 8
  store ptr %0, ptr %2, align 8
  %3 = load ptr, ptr %2, align 8
  %4 = getelementptr inbounds nuw %"struct.clang::TargetInfo::ConstraintInfo", ptr %3, i32 0, i32 0
  %5 = load i32, ptr %4, align 8
  %6 = or i32 %5, 1
  store i32 %6, ptr %4, align 8
  ret void
}

; Function Attrs: mustprogress nounwind uwtable
define linkonce_odr hidden void @_ZN5clang10TargetInfo14ConstraintInfo17setAllowsRegisterEv(ptr noundef nonnull align 8 dereferenceable(168) %0) #0 comdat align 2 {
  %2 = alloca ptr, align 8
  store ptr %0, ptr %2, align 8
  %3 = load ptr, ptr %2, align 8
  %4 = getelementptr inbounds nuw %"struct.clang::TargetInfo::ConstraintInfo", ptr %3, i32 0, i32 0
  %5 = load i32, ptr %4, align 8
  %6 = or i32 %5, 2
  store i32 %6, ptr %4, align 8
  ret void
}

; Function Attrs: mustprogress nounwind uwtable
define linkonce_odr hidden void @_ZN5clang10TargetInfo14ConstraintInfo15setEarlyClobberEv(ptr noundef nonnull align 8 dereferenceable(168) %0) #0 comdat align 2 {
  %2 = alloca ptr, align 8
  store ptr %0, ptr %2, align 8
  %3 = load ptr, ptr %2, align 8
  %4 = getelementptr inbounds nuw %"struct.clang::TargetInfo::ConstraintInfo", ptr %3, i32 0, i32 0
  %5 = load i32, ptr %4, align 8
  %6 = or i32 %5, 32
  store i32 %6, ptr %4, align 8
  ret void
}

; Function Attrs: mustprogress nounwind uwtable
define linkonce_odr hidden void @_ZN5clang10TargetInfo14ConstraintInfo14setIsReadWriteEv(ptr noundef nonnull align 8 dereferenceable(168) %0) #0 comdat align 2 {
  %2 = alloca ptr, align 8
  store ptr %0, ptr %2, align 8
  %3 = load ptr, ptr %2, align 8
  %4 = getelementptr inbounds nuw %"struct.clang::TargetInfo::ConstraintInfo", ptr %3, i32 0, i32 0
  %5 = load i32, ptr %4, align 8
  %6 = or i32 %5, 4
  store i32 %6, ptr %4, align 8
  ret void
}

; Function Attrs: mustprogress nounwind uwtable
define linkonce_odr hidden noundef nonnull align 8 dereferenceable(32) ptr @_ZNK5clang10TargetInfo14ConstraintInfo16getConstraintStrB5cxx11Ev(ptr noundef nonnull align 8 dereferenceable(168) %0) #0 comdat align 2 {
  %2 = alloca ptr, align 8
  store ptr %0, ptr %2, align 8
  %3 = load ptr, ptr %2, align 8
  %4 = getelementptr inbounds nuw %"struct.clang::TargetInfo::ConstraintInfo", ptr %3, i32 0, i32 4
  ret ptr %4
}

; Function Attrs: mustprogress nounwind uwtable
define dso_local noundef zeroext i1 @_ZNK5clang10TargetInfo24validateOutputConstraintERNS0_14ConstraintInfoE(ptr noundef nonnull align 8 dereferenceable(489) %0, ptr noundef nonnull align 8 dereferenceable(168) %1) #0 align 2 {
  %3 = alloca i1, align 1
  %4 = alloca ptr, align 8
  %5 = alloca ptr, align 8
  %6 = alloca ptr, align 8
  store ptr %0, ptr %4, align 8
  store ptr %1, ptr %5, align 8
  %7 = load ptr, ptr %4, align 8
  %8 = load ptr, ptr %5, align 8
  %9 = call noundef nonnull align 8 dereferenceable(32) ptr @_ZNK5clang10TargetInfo14ConstraintInfo16getConstraintStrB5cxx11Ev(ptr noundef nonnull align 8 dereferenceable(168) %8)
  %10 = call noundef ptr @_ZNKSt7__cxx1112basic_stringIcSt11char_traitsIcESaIcEE5c_strEv(ptr noundef nonnull align 8 dereferenceable(32) %9) #12
  store ptr %10, ptr %6, align 8
  %11 = load ptr, ptr %6, align 8
  %12 = load i8, ptr %11, align 1
  %13 = sext i8 %12 to i32
  %14 = icmp ne i32 %13, 61
  br i1 %14, label %15, label %21

15:                                               ; preds = %2
  %16 = load ptr, ptr %6, align 8
  %17 = load i8, ptr %16, align 1
  %18 = sext i8 %17 to i32
  %19 = icmp ne i32 %18, 43
  br i1 %19, label %20, label %21

20:                                               ; preds = %15
  store i1 false, ptr %3, align 1
  br label %113

21:                                               ; preds = %15, %2
  %22 = load ptr, ptr %6, align 8
  %23 = load i8, ptr %22, align 1
  %24 = sext i8 %23 to i32
  %25 = icmp eq i32 %24, 43
  br i1 %25, label %26, label %28

26:                                               ; preds = %21
  %27 = load ptr, ptr %5, align 8
  call void @_ZN5clang10TargetInfo14ConstraintInfo14setIsReadWriteEv(ptr noundef nonnull align 8 dereferenceable(168) %27)
  br label %28

28:                                               ; preds = %26, %21
  %29 = load ptr, ptr %6, align 8
  %30 = getelementptr inbounds i8, ptr %29, i32 1
  store ptr %30, ptr %6, align 8
  br label %31

31:                                               ; preds = %92, %28
  %32 = load ptr, ptr %6, align 8
  %33 = load i8, ptr %32, align 1
  %34 = icmp ne i8 %33, 0
  br i1 %34, label %35, label %95

35:                                               ; preds = %31
  %36 = load ptr, ptr %6, align 8
  %37 = load i8, ptr %36, align 1
  %38 = sext i8 %37 to i32
  switch i32 %38, label %39 [
    i32 38, label %47
    i32 37, label %49
    i32 114, label %50
    i32 109, label %52
    i32 111, label %52
    i32 86, label %52
    i32 60, label %52
    i32 62, label %52
    i32 103, label %54
    i32 88, label %54
    i32 44, label %57
    i32 35, label %73
    i32 63, label %91
    i32 33, label %91
    i32 42, label %91
    i32 105, label %91
    i32 110, label %91
    i32 69, label %91
    i32 70, label %91
  ]

39:                                               ; preds = %35
  %40 = load ptr, ptr %5, align 8
  %41 = load ptr, ptr %7, align 8
  %42 = getelementptr inbounds ptr, ptr %41, i64 44
  %43 = load ptr, ptr %42, align 8
  %44 = call noundef zeroext i1 %43(ptr noundef nonnull align 8 dereferenceable(489) %7, ptr noundef nonnull align 8 dereferenceable(8) %6, ptr noundef nonnull align 8 dereferenceable(168) %40)
  br i1 %44, label %46, label %45

45:                                               ; preds = %39
  store i1 false, ptr %3, align 1
  br label %113

46:                                               ; preds = %39
  br label %92

47:                                               ; preds = %35
  %48 = load ptr, ptr %5, align 8
  call void @_ZN5clang10TargetInfo14ConstraintInfo15setEarlyClobberEv(ptr noundef nonnull align 8 dereferenceable(168) %48)
  br label %92

49:                                               ; preds = %35
  br label %92

50:                                               ; preds = %35
  %51 = load ptr, ptr %5, align 8
  call void @_ZN5clang10TargetInfo14ConstraintInfo17setAllowsRegisterEv(ptr noundef nonnull align 8 dereferenceable(168) %51)
  br label %92

52:                                               ; preds = %35, %35, %35, %35, %35
  %53 = load ptr, ptr %5, align 8
  call void @_ZN5clang10TargetInfo14ConstraintInfo15setAllowsMemoryEv(ptr noundef nonnull align 8 dereferenceable(168) %53)
  br label %92

54:                                               ; preds = %35, %35
  %55 = load ptr, ptr %5, align 8
  call void @_ZN5clang10TargetInfo14ConstraintInfo17setAllowsRegisterEv(ptr noundef nonnull align 8 dereferenceable(168) %55)
  %56 = load ptr, ptr %5, align 8
  call void @_ZN5clang10TargetInfo14ConstraintInfo15setAllowsMemoryEv(ptr noundef nonnull align 8 dereferenceable(168) %56)
  br label %92

57:                                               ; preds = %35
  %58 = load ptr, ptr %6, align 8
  %59 = getelementptr inbounds i8, ptr %58, i64 1
  %60 = load i8, ptr %59, align 1
  %61 = sext i8 %60 to i32
  %62 = icmp eq i32 %61, 61
  br i1 %62, label %69, label %63

63:                                               ; preds = %57
  %64 = load ptr, ptr %6, align 8
  %65 = getelementptr inbounds i8, ptr %64, i64 1
  %66 = load i8, ptr %65, align 1
  %67 = sext i8 %66 to i32
  %68 = icmp eq i32 %67, 43
  br i1 %68, label %69, label %72

69:                                               ; preds = %63, %57
  %70 = load ptr, ptr %6, align 8
  %71 = getelementptr inbounds i8, ptr %70, i32 1
  store ptr %71, ptr %6, align 8
  br label %72

72:                                               ; preds = %69, %63
  br label %92

73:                                               ; preds = %35
  br label %74

74:                                               ; preds = %87, %73
  %75 = load ptr, ptr %6, align 8
  %76 = getelementptr inbounds i8, ptr %75, i64 1
  %77 = load i8, ptr %76, align 1
  %78 = icmp ne i8 %77, 0
  br i1 %78, label %79, label %85

79:                                               ; preds = %74
  %80 = load ptr, ptr %6, align 8
  %81 = getelementptr inbounds i8, ptr %80, i64 1
  %82 = load i8, ptr %81, align 1
  %83 = sext i8 %82 to i32
  %84 = icmp ne i32 %83, 44
  br label %85

85:                                               ; preds = %79, %74
  %86 = phi i1 [ false, %74 ], [ %84, %79 ]
  br i1 %86, label %87, label %90

87:                                               ; preds = %85
  %88 = load ptr, ptr %6, align 8
  %89 = getelementptr inbounds i8, ptr %88, i32 1
  store ptr %89, ptr %6, align 8
  br label %74, !llvm.loop !4

90:                                               ; preds = %85
  br label %92

91:                                               ; preds = %35, %35, %35, %35, %35, %35, %35
  br label %92

92:                                               ; preds = %91, %90, %72, %54, %52, %50, %49, %47, %46
  %93 = load ptr, ptr %6, align 8
  %94 = getelementptr inbounds i8, ptr %93, i32 1
  store ptr %94, ptr %6, align 8
  br label %31, !llvm.loop !6

95:                                               ; preds = %31
  %96 = load ptr, ptr %5, align 8
  %97 = call noundef zeroext i1 @_ZN5clang10TargetInfo14ConstraintInfo12earlyClobberEv(ptr noundef nonnull align 8 dereferenceable(168) %96)
  br i1 %97, label %98, label %105

98:                                               ; preds = %95
  %99 = load ptr, ptr %5, align 8
  %100 = call noundef zeroext i1 @_ZNK5clang10TargetInfo14ConstraintInfo11isReadWriteEv(ptr noundef nonnull align 8 dereferenceable(168) %99)
  br i1 %100, label %101, label %105

101:                                              ; preds = %98
  %102 = load ptr, ptr %5, align 8
  %103 = call noundef zeroext i1 @_ZNK5clang10TargetInfo14ConstraintInfo14allowsRegisterEv(ptr noundef nonnull align 8 dereferenceable(168) %102)
  br i1 %103, label %105, label %104

104:                                              ; preds = %101
  store i1 false, ptr %3, align 1
  br label %113

105:                                              ; preds = %101, %98, %95
  %106 = load ptr, ptr %5, align 8
  %107 = call noundef zeroext i1 @_ZNK5clang10TargetInfo14ConstraintInfo12allowsMemoryEv(ptr noundef nonnull align 8 dereferenceable(168) %106)
  br i1 %107, label %111, label %108

108:                                              ; preds = %105
  %109 = load ptr, ptr %5, align 8
  %110 = call noundef zeroext i1 @_ZNK5clang10TargetInfo14ConstraintInfo14allowsRegisterEv(ptr noundef nonnull align 8 dereferenceable(168) %109)
  br label %111

111:                                              ; preds = %108, %105
  %112 = phi i1 [ true, %105 ], [ %110, %108 ]
  store i1 %112, ptr %3, align 1
  br label %113

113:                                              ; preds = %111, %104, %45, %20
  %114 = load i1, ptr %3, align 1
  ret i1 %114
}