; Function Attrs: mustprogress nounwind uwtable
define dso_local noundef zeroext i1 @_ZNK5clang10TargetInfo24validateOutputConstraintERNS0_14ConstraintInfoE(ptr noundef nonnull align 8 dereferenceable(489) %0, ptr noundef nonnull align 8 dereferenceable(168) %1) local_unnamed_addr #0 align 2 {
  %3 = alloca ptr, align 8
  %4 = getelementptr inbounds nuw i8, ptr %1, i64 104
  %5 = tail call noundef ptr @_ZNKSt7__cxx1112basic_stringIcSt11char_traitsIcESaIcEE5c_strEv(ptr noundef nonnull align 8 dereferenceable(32) %4) #21
  %6 = load i8, ptr %5, align 1
  switch i8 %6, label %.loopexit [
    i8 43, label %7
    i8 61, label %.critedge.preheader
  ]

7:                                                ; preds = %2
  %8 = load i32, ptr %1, align 8
  %9 = or i32 %8, 4
  store i32 %9, ptr %1, align 8
  br label %.critedge.preheader

.critedge.preheader:                              ; preds = %2, %7
  br label %.critedge

.critedge:                                        ; preds = %.critedge.backedge, %.critedge.preheader
  %.pn = phi ptr [ %5, %.critedge.preheader ], [ %.pn.be, %.critedge.backedge ]
  %storemerge = getelementptr inbounds nuw i8, ptr %.pn, i64 1
  store ptr %storemerge, ptr %3, align 8
  %10 = load i8, ptr %storemerge, align 1
  switch i8 %10, label %11 [
    i8 0, label %36
    i8 38, label %16
    i8 37, label %.critedge.backedge
    i8 114, label %19
    i8 109, label %22
    i8 111, label %22
    i8 86, label %22
    i8 60, label %22
    i8 62, label %22
    i8 103, label %25
    i8 88, label %25
    i8 44, label %28
    i8 35, label %.preheader
    i8 63, label %.critedge.backedge
    i8 33, label %.critedge.backedge
    i8 42, label %.critedge.backedge
    i8 105, label %.critedge.backedge
    i8 110, label %.critedge.backedge
    i8 69, label %.critedge.backedge
    i8 70, label %.critedge.backedge
  ]

11:                                               ; preds = %.critedge
  %12 = load ptr, ptr %0, align 8
  %13 = getelementptr inbounds nuw i8, ptr %12, i64 352
  %14 = load ptr, ptr %13, align 8
  %15 = call noundef zeroext i1 %14(ptr noundef nonnull align 8 dereferenceable(489) %0, ptr noundef nonnull align 8 dereferenceable(8) %3, ptr noundef nonnull align 8 dereferenceable(168) %1) #21
  br i1 %15, label %..critedge_crit_edge, label %.loopexit

..critedge_crit_edge:                             ; preds = %11
  %.pn.pre.pre = load ptr, ptr %3, align 8
  br label %.critedge.backedge

.critedge.backedge:                               ; preds = %.preheader, %.preheader, %..critedge_crit_edge, %28, %.critedge, %.critedge, %.critedge, %.critedge, %.critedge, %.critedge, %.critedge, %.critedge, %31, %25, %22, %19, %16
  %.pn.be = phi ptr [ %.pn.pre.pre, %..critedge_crit_edge ], [ %storemerge, %28 ], [ %storemerge, %.critedge ], [ %storemerge, %.critedge ], [ %storemerge, %.critedge ], [ %storemerge, %.critedge ], [ %storemerge, %.critedge ], [ %storemerge, %.critedge ], [ %storemerge, %.critedge ], [ %storemerge, %.critedge ], [ %29, %31 ], [ %storemerge, %25 ], [ %storemerge, %22 ], [ %storemerge, %19 ], [ %storemerge, %16 ], [ %32, %.preheader ], [ %32, %.preheader ]
  br label %.critedge, !llvm.loop !60

16:                                               ; preds = %.critedge
  %17 = load i32, ptr %1, align 8
  %18 = or i32 %17, 32
  store i32 %18, ptr %1, align 8
  br label %.critedge.backedge

19:                                               ; preds = %.critedge
  %20 = load i32, ptr %1, align 8
  %21 = or i32 %20, 2
  store i32 %21, ptr %1, align 8
  br label %.critedge.backedge

22:                                               ; preds = %.critedge, %.critedge, %.critedge, %.critedge, %.critedge
  %23 = load i32, ptr %1, align 8
  %24 = or i32 %23, 1
  store i32 %24, ptr %1, align 8
  br label %.critedge.backedge

25:                                               ; preds = %.critedge, %.critedge
  %26 = load i32, ptr %1, align 8
  %27 = or i32 %26, 3
  store i32 %27, ptr %1, align 8
  br label %.critedge.backedge

28:                                               ; preds = %.critedge
  %29 = getelementptr inbounds nuw i8, ptr %.pn, i64 2
  %30 = load i8, ptr %29, align 1
  switch i8 %30, label %.critedge.backedge [
    i8 61, label %31
    i8 43, label %31
  ]

31:                                               ; preds = %28, %28
  store ptr %29, ptr %3, align 8
  br label %.critedge.backedge

.preheader:                                       ; preds = %.critedge, %35
  %32 = phi ptr [ %33, %35 ], [ %storemerge, %.critedge ]
  %33 = getelementptr inbounds nuw i8, ptr %32, i64 1
  %34 = load i8, ptr %33, align 1
  switch i8 %34, label %35 [
    i8 0, label %.critedge.backedge
    i8 44, label %.critedge.backedge
  ], !llvm.loop !60

35:                                               ; preds = %.preheader
  store ptr %33, ptr %3, align 8
  br label %.preheader, !llvm.loop !61

36:                                               ; preds = %.critedge
  %37 = load i32, ptr %1, align 8
  %38 = and i32 %37, 38
  %or.cond25.not = icmp eq i32 %38, 36
  br i1 %or.cond25.not, label %.loopexit, label %39

39:                                               ; preds = %36
  %40 = and i32 %37, 1
  %.not = icmp eq i32 %40, 0
  br i1 %.not, label %41, label %.loopexit

41:                                               ; preds = %39
  %42 = and i32 %37, 2
  %43 = icmp ne i32 %42, 0
  br label %.loopexit

.loopexit:                                        ; preds = %11, %36, %2, %39, %41
  %.0 = phi i1 [ false, %2 ], [ true, %39 ], [ %43, %41 ], [ false, %36 ], [ false, %11 ]
  ret i1 %.0
}